; Function Attrs: nofree norecurse nosync nounwind memory(argmem: readwrite) uwtable
define internal void @horizontal_compose_haar0i_12bit(ptr noundef captures(none) %0, ptr noundef captures(none) %1, i32 noundef %2) #3 {
  %4 = ashr i32 %2, 1
  %5 = icmp sgt i32 %4, 0
  br i1 %5, label %.lr.ph.preheader, label %horizontal_compose_haari_12bit.exit

.lr.ph.preheader:                                 ; preds = %3
  %6 = zext nneg i32 %4 to i64
  br label %.lr.ph

.lr.ph:                                           ; preds = %.lr.ph.preheader, %.lr.ph
  %indvars.iv = phi i64 [ 0, %.lr.ph.preheader ], [ %indvars.iv.next, %.lr.ph ]
  %7 = getelementptr inbounds nuw i32, ptr %0, i64 %indvars.iv
  %8 = load i32, ptr %7, align 4, !tbaa !70
  %9 = add nuw nsw i64 %indvars.iv, %6
  %10 = getelementptr inbounds nuw i32, ptr %0, i64 %9
  %11 = load i32, ptr %10, align 4, !tbaa !70
  %12 = add i32 %11, 1
  %13 = ashr i32 %12, 1
  %14 = sub i32 %8, %13
  %15 = getelementptr inbounds nuw i32, ptr %1, i64 %indvars.iv
  store i32 %14, ptr %15, align 4, !tbaa !70
  %16 = load i32, ptr %10, align 4, !tbaa !70
  %17 = add i32 %14, %16
  %18 = getelementptr inbounds nuw i32, ptr %1, i64 %9
  store i32 %17, ptr %18, align 4, !tbaa !70
  %indvars.iv.next = add nuw nsw i64 %indvars.iv, 1
  %exitcond.not = icmp eq i64 %indvars.iv.next, %6
  br i1 %exitcond.not, label %.lr.ph7.preheader, label %.lr.ph, !llvm.loop !111

.lr.ph7.preheader:                                ; preds = %.lr.ph
  %19 = zext nneg i32 %4 to i64
  %20 = getelementptr inbounds nuw i32, ptr %1, i64 %19
  %wide.trip.count12 = zext nneg i32 %4 to i64
  br label %.lr.ph7

.lr.ph7:                                          ; preds = %.lr.ph7.preheader, %.lr.ph7
  %indvars.iv9 = phi i64 [ 0, %.lr.ph7.preheader ], [ %indvars.iv.next10, %.lr.ph7 ]
  %21 = getelementptr inbounds nuw i32, ptr %1, i64 %indvars.iv9
  %22 = load i32, ptr %21, align 4, !tbaa !70
  %.idx = shl nuw nsw i64 %indvars.iv9, 3
  %23 = getelementptr inbounds nuw i8, ptr %0, i64 %.idx
  store i32 %22, ptr %23, align 4, !tbaa !70
  %24 = getelementptr inbounds nuw i32, ptr %20, i64 %indvars.iv9
  %25 = load i32, ptr %24, align 4, !tbaa !70
  %26 = getelementptr inbounds nuw i8, ptr %23, i64 4
  store i32 %25, ptr %26, align 4, !tbaa !70
  %indvars.iv.next10 = add nuw nsw i64 %indvars.iv9, 1
  %exitcond13.not = icmp eq i64 %indvars.iv.next10, %wide.trip.count12
  br i1 %exitcond13.not, label %horizontal_compose_haari_12bit.exit, label %.lr.ph7, !llvm.loop !106

horizontal_compose_haari_12bit.exit:              ; preds = %.lr.ph7, %3
  ret void
}